; ModuleID = 'source-C-CXX/56/298.c'
source_filename = "source-C-CXX/56/298.c"
target datalayout = "e-m:e-p270:32:32-p271:32:32-p272:64:64-i64:64-f80:128-n8:16:32:64-S128"
target triple = "x86_64-pc-linux-gnu"

%struct._IO_FILE = type { i32, i8*, i8*, i8*, i8*, i8*, i8*, i8*, i8*, i8*, i8*, i8*, %struct._IO_marker*, %struct._IO_FILE*, i32, i32, i64, i16, i8, [1 x i8], i8*, i64, %struct._IO_codecvt*, %struct._IO_wide_data*, %struct._IO_FILE*, i8*, i64, i32, [20 x i8] }
%struct._IO_marker = type opaque
%struct._IO_codecvt = type opaque
%struct._IO_wide_data = type opaque

@.str = private unnamed_addr constant [3 x i8] c"%d\00", align 1
@stdin = external local_unnamed_addr global %struct._IO_FILE*, align 8

; Function Attrs: nounwind sspstrong uwtable
define dso_local i32 @main() local_unnamed_addr #0 {
  %1 = alloca i32, align 4
  %2 = alloca [100 x [100 x i8]], align 16
  %3 = bitcast i32* %1 to i8*
  call void @llvm.lifetime.start.p0i8(i64 4, i8* nonnull %3) #7
  %4 = getelementptr inbounds [100 x [100 x i8]], [100 x [100 x i8]]* %2, i64 0, i64 0, i64 0
  call void @llvm.lifetime.start.p0i8(i64 10000, i8* nonnull %4) #7
  %5 = call i32 (i8*, ...) @__isoc99_scanf(i8* getelementptr inbounds ([3 x i8], [3 x i8]* @.str, i64 0, i64 0), i32* nonnull %1)
  %6 = load %struct._IO_FILE*, %struct._IO_FILE** @stdin, align 8, !tbaa !5
  %7 = call i32 @getc(%struct._IO_FILE* %6) #7
  %8 = load i32, i32* %1, align 4, !tbaa !9
  %9 = icmp sgt i32 %8, 0
  br i1 %9, label %12, label %65

10:                                               ; preds = %12
  %11 = icmp sgt i32 %17, 0
  br i1 %11, label %20, label %65

12:                                               ; preds = %0, %12
  %13 = phi i64 [ %16, %12 ], [ 0, %0 ]
  %14 = getelementptr inbounds [100 x [100 x i8]], [100 x [100 x i8]]* %2, i64 0, i64 %13, i64 0
  %15 = call i32 (i8*, ...) bitcast (i32 (...)* @gets to i32 (i8*, ...)*)(i8* nonnull %14) #7
  %16 = add nuw nsw i64 %13, 1
  %17 = load i32, i32* %1, align 4, !tbaa !9
  %18 = sext i32 %17 to i64
  %19 = icmp slt i64 %16, %18
  br i1 %19, label %12, label %10, !llvm.loop !11

20:                                               ; preds = %10, %60
  %21 = phi i64 [ %61, %60 ], [ 0, %10 ]
  %22 = getelementptr inbounds [100 x [100 x i8]], [100 x [100 x i8]]* %2, i64 0, i64 %21, i64 0
  %23 = call i64 @strlen(i8* noundef nonnull %22) #8
  %24 = trunc i64 %23 to i32
  %25 = shl i64 %23, 32
  %26 = add i64 %25, -4294967296
  %27 = ashr exact i64 %26, 32
  %28 = getelementptr inbounds [100 x [100 x i8]], [100 x [100 x i8]]* %2, i64 0, i64 %21, i64 %27
  %29 = load i8, i8* %28, align 1, !tbaa !13
  switch i8 %29, label %60 [
    i8 114, label %37
    i8 121, label %37
    i8 103, label %30
  ]

30:                                               ; preds = %20
  %31 = icmp sgt i32 %24, 3
  br i1 %31, label %32, label %58

32:                                               ; preds = %30
  %33 = shl i64 %23, 32
  %34 = add i64 %33, -12884901888
  %35 = ashr exact i64 %34, 32
  %36 = call i64 @llvm.smax.i64(i64 %35, i64 1)
  br label %50

37:                                               ; preds = %20, %20
  %38 = icmp sgt i32 %24, 2
  br i1 %38, label %39, label %58

39:                                               ; preds = %37
  %40 = add i64 %23, 4294967294
  %41 = and i64 %40, 4294967295
  br label %42

42:                                               ; preds = %39, %42
  %43 = phi i64 [ 0, %39 ], [ %48, %42 ]
  %44 = getelementptr inbounds [100 x [100 x i8]], [100 x [100 x i8]]* %2, i64 0, i64 %21, i64 %43
  %45 = load i8, i8* %44, align 1, !tbaa !13
  %46 = sext i8 %45 to i32
  %47 = call i32 @putchar(i32 %46)
  %48 = add nuw nsw i64 %43, 1
  %49 = icmp eq i64 %48, %41
  br i1 %49, label %58, label %42, !llvm.loop !14

50:                                               ; preds = %32, %50
  %51 = phi i64 [ 0, %32 ], [ %56, %50 ]
  %52 = getelementptr inbounds [100 x [100 x i8]], [100 x [100 x i8]]* %2, i64 0, i64 %21, i64 %51
  %53 = load i8, i8* %52, align 1, !tbaa !13
  %54 = sext i8 %53 to i32
  %55 = call i32 @putchar(i32 %54)
  %56 = add nuw nsw i64 %51, 1
  %57 = icmp eq i64 %56, %36
  br i1 %57, label %58, label %50, !llvm.loop !15

58:                                               ; preds = %50, %42, %30, %37
  %59 = call i32 @putchar(i32 10)
  br label %60

60:                                               ; preds = %58, %20
  %61 = add nuw nsw i64 %21, 1
  %62 = load i32, i32* %1, align 4, !tbaa !9
  %63 = sext i32 %62 to i64
  %64 = icmp slt i64 %61, %63
  br i1 %64, label %20, label %65, !llvm.loop !16

65:                                               ; preds = %60, %0, %10
  call void @llvm.lifetime.end.p0i8(i64 10000, i8* nonnull %4) #7
  call void @llvm.lifetime.end.p0i8(i64 4, i8* nonnull %3) #7
  ret i32 0
}

; Function Attrs: argmemonly mustprogress nofree nosync nounwind willreturn
declare void @llvm.lifetime.start.p0i8(i64 immarg, i8* nocapture) #1

; Function Attrs: nofree nounwind
declare noundef i32 @__isoc99_scanf(i8* nocapture noundef readonly, ...) local_unnamed_addr #2

declare i32 @gets(...) local_unnamed_addr #3

; Function Attrs: argmemonly mustprogress nofree nounwind readonly willreturn
declare i64 @strlen(i8* nocapture) local_unnamed_addr #4

; Function Attrs: argmemonly mustprogress nofree nosync nounwind willreturn
declare void @llvm.lifetime.end.p0i8(i64 immarg, i8* nocapture) #1

; Function Attrs: nofree nounwind
declare noundef i32 @getc(%struct._IO_FILE* nocapture noundef) local_unnamed_addr #2

; Function Attrs: nofree nounwind
declare noundef i32 @putchar(i32 noundef) local_unnamed_addr #5

; Function Attrs: nofree nosync nounwind readnone speculatable willreturn
declare i64 @llvm.smax.i64(i64, i64) #6


!llvm.module.flags = !{!0, !1, !2, !3}
!llvm.ident = !{!4}

!0 = !{i32 1, !"wchar_size", i32 4}
!1 = !{i32 7, !"PIC Level", i32 2}
!2 = !{i32 7, !"PIE Level", i32 2}
!3 = !{i32 7, !"uwtable", i32 1}
!4 = !{!"clang version 13.0.0"}
!5 = !{!6, !6, i64 0}
!6 = !{!"any pointer", !7, i64 0}
!7 = !{!"omnipotent char", !8, i64 0}
!8 = !{!"Simple C/C++ TBAA"}
!9 = !{!10, !10, i64 0}
!10 = !{!"int", !7, i64 0}
!11 = distinct !{!11, !12}
!12 = !{!"llvm.loop.mustprogress"}
!13 = !{!7, !7, i64 0}
!14 = distinct !{!14, !12}
!15 = distinct !{!15, !12}
!16 = distinct !{!16, !12}
